target datalayout = "e-m:e-p270:32:32-p271:32:32-p272:64:64-i64:64-i128:128-f80:128-n8:16:32:64-S128"
target triple = "x86_64-pc-linux-gnu"

%struct.Aig_Obj_t_ = type { %union.anon, ptr, ptr, i64, i32, i32, %union.anon.0 }
%union.anon = type { ptr }
%union.anon.0 = type { ptr }
%struct.Aig_Man_t_ = type { ptr, ptr, ptr, ptr, ptr, ptr, ptr, %struct.Aig_Obj_t_, i32, i32, i32, i32, i32, i32, [7 x i32], i32, ptr, i32, ptr, i32, ptr, i32, i32, i32, ptr, i32, i32, i32, i32, i32, ptr, ptr, i32, ptr, ptr, i32, ptr, ptr, i32, i32, i32, ptr, ptr, ptr, ptr, ptr, ptr, ptr, ptr, ptr, ptr, ptr, ptr, ptr, ptr, i32, ptr, ptr, ptr, ptr, i32, i64, i64, i64, ptr, ptr }
%struct.Gia_Man_t_ = type { ptr, ptr, i32, i32, i32, i32, ptr, ptr, i32, i32, i32, ptr, ptr, %struct.Vec_Int_t_, %struct.Vec_Int_t_, i32, i32, i32, %struct.Vec_Int_t_, ptr, ptr, ptr, i32, i32, i32, i32, ptr, ptr, ptr, ptr, ptr, i32, i32, ptr, i32, ptr, ptr, ptr, ptr, ptr, ptr, ptr, ptr, ptr, ptr, ptr, ptr, ptr, ptr, ptr, ptr, ptr, ptr, %struct.Vec_Int_t_, %struct.Vec_Int_t_, ptr, ptr, ptr, ptr, ptr, ptr, ptr, ptr, ptr, ptr, ptr, ptr, ptr, ptr, ptr, ptr, ptr, ptr, ptr, ptr, ptr, i32, float, float, ptr, ptr, i32, ptr, ptr, ptr, ptr, ptr, ptr, ptr, ptr, ptr, ptr, ptr, ptr, ptr, ptr, ptr, i64, i64, ptr, ptr, i32, i32, i32, i32, i32, i32, i32, i32, i32, i32, i32, i32, ptr, ptr, ptr, ptr, ptr, ptr, ptr, ptr, i32, i32, i32, ptr, i32, i32, ptr, ptr, ptr, ptr, ptr, ptr, i32, i32, ptr, %struct.Vec_Int_t_, %struct.Vec_Int_t_, %struct.Vec_Int_t_, ptr, ptr, ptr, i32, i32, i32, i32, ptr, ptr, ptr, ptr, ptr }
%struct.Vec_Int_t_ = type { i32, i32, ptr }
%struct.Vec_Ptr_t_ = type { i32, i32, ptr }

; Function Attrs: inlinehint nounwind uwtable
define internal i32 @Aig_IsComplement(ptr noundef %0) #2 {
  %2 = alloca ptr, align 8
  store ptr %0, ptr %2, align 8, !tbaa !10
  %3 = load ptr, ptr %2, align 8, !tbaa !10
  %4 = ptrtoint ptr %3 to i64
  %5 = and i64 %4, 1
  %6 = trunc i64 %5 to i32
  ret i32 %6
}

; Function Attrs: inlinehint nounwind uwtable
define internal i32 @Abc_LitNotCond(i32 noundef %0, i32 noundef %1) #2 {
  %3 = alloca i32, align 4
  %4 = alloca i32, align 4
  store i32 %0, ptr %3, align 4, !tbaa !26
  store i32 %1, ptr %4, align 4, !tbaa !26
  %5 = load i32, ptr %3, align 4, !tbaa !26
  %6 = load i32, ptr %4, align 4, !tbaa !26
  %7 = icmp sgt i32 %6, 0
  %8 = zext i1 %7 to i32
  %9 = xor i32 %5, %8
  ret i32 %9
}

; Function Attrs: inlinehint nounwind uwtable
define internal i32 @Aig_ObjFaninC0(ptr noundef %0) #2 {
  %2 = alloca ptr, align 8
  store ptr %0, ptr %2, align 8, !tbaa !10
  %3 = load ptr, ptr %2, align 8, !tbaa !10
  %4 = getelementptr inbounds nuw %struct.Aig_Obj_t_, ptr %3, i32 0, i32 1
  %5 = load ptr, ptr %4, align 8, !tbaa !40
  %6 = call i32 @Aig_IsComplement(ptr noundef %5)
  ret i32 %6
}

; Function Attrs: inlinehint nounwind uwtable
define internal ptr @Aig_Regular(ptr noundef %0) #2 {
  %2 = alloca ptr, align 8
  store ptr %0, ptr %2, align 8, !tbaa !10
  %3 = load ptr, ptr %2, align 8, !tbaa !10
  %4 = ptrtoint ptr %3 to i64
  %5 = and i64 %4, -2
  %6 = inttoptr i64 %5 to ptr
  ret ptr %6
}

; Function Attrs: inlinehint nounwind uwtable
define internal i32 @Aig_ManRegNum(ptr noundef %0) #2 {
  %2 = alloca ptr, align 8
  store ptr %0, ptr %2, align 8, !tbaa !8
  %3 = load ptr, ptr %2, align 8, !tbaa !8
  %4 = getelementptr inbounds nuw %struct.Aig_Man_t_, ptr %3, i32 0, i32 8
  %5 = load i32, ptr %4, align 8, !tbaa !71
  ret i32 %5
}

; Function Attrs: inlinehint nounwind uwtable
define internal i32 @Gia_ObjChild0Copy(ptr noundef %0) #2 {
  %2 = alloca ptr, align 8
  store ptr %0, ptr %2, align 8, !tbaa !10
  %3 = load ptr, ptr %2, align 8, !tbaa !10
  %4 = call ptr @Aig_ObjFanin0(ptr noundef %3)
  %5 = getelementptr inbounds nuw %struct.Aig_Obj_t_, ptr %4, i32 0, i32 6
  %6 = load i32, ptr %5, align 8, !tbaa !12
  %7 = load ptr, ptr %2, align 8, !tbaa !10
  %8 = call i32 @Aig_ObjFaninC0(ptr noundef %7)
  %9 = call i32 @Abc_LitNotCond(i32 noundef %6, i32 noundef %8)
  ret i32 %9
}

; Function Attrs: inlinehint nounwind uwtable
define internal ptr @Aig_ObjFanin0(ptr noundef %0) #2 {
  %2 = alloca ptr, align 8
  store ptr %0, ptr %2, align 8, !tbaa !10
  %3 = load ptr, ptr %2, align 8, !tbaa !10
  %4 = getelementptr inbounds nuw %struct.Aig_Obj_t_, ptr %3, i32 0, i32 1
  %5 = load ptr, ptr %4, align 8, !tbaa !40
  %6 = call ptr @Aig_Regular(ptr noundef %5)
  ret ptr %6
}

; Function Attrs: inlinehint nounwind uwtable
define internal i32 @Aig_ObjRefs(ptr noundef %0) #2 {
  %2 = alloca ptr, align 8
  store ptr %0, ptr %2, align 8, !tbaa !10
  %3 = load ptr, ptr %2, align 8, !tbaa !10
  %4 = getelementptr inbounds nuw %struct.Aig_Obj_t_, ptr %3, i32 0, i32 3
  %5 = load i64, ptr %4, align 8
  %6 = lshr i64 %5, 6
  %7 = and i64 %6, 67108863
  %8 = trunc i64 %7 to i32
  ret i32 %8
}

; Function Attrs: inlinehint nounwind uwtable
define internal i32 @Aig_ObjIsNode(ptr noundef %0) #2 {
  %2 = alloca ptr, align 8
  store ptr %0, ptr %2, align 8, !tbaa !10
  %3 = load ptr, ptr %2, align 8, !tbaa !10
  %4 = getelementptr inbounds nuw %struct.Aig_Obj_t_, ptr %3, i32 0, i32 3
  %5 = load i64, ptr %4, align 8
  %6 = and i64 %5, 7
  %7 = trunc i64 %6 to i32
  %8 = icmp eq i32 %7, 5
  br i1 %8, label %16, label %9

9:                                                ; preds = %1
  %10 = load ptr, ptr %2, align 8, !tbaa !10
  %11 = getelementptr inbounds nuw %struct.Aig_Obj_t_, ptr %10, i32 0, i32 3
  %12 = load i64, ptr %11, align 8
  %13 = and i64 %12, 7
  %14 = trunc i64 %13 to i32
  %15 = icmp eq i32 %14, 6
  br label %16

16:                                               ; preds = %9, %1
  %17 = phi i1 [ true, %1 ], [ %15, %9 ]
  %18 = zext i1 %17 to i32
  ret i32 %18
}

; Function Attrs: inlinehint nounwind uwtable
define internal ptr @Vec_PtrEntry(ptr noundef %0, i32 noundef %1) #2 {
  %3 = alloca ptr, align 8
  %4 = alloca i32, align 4
  store ptr %0, ptr %3, align 8, !tbaa !64
  store i32 %1, ptr %4, align 4, !tbaa !26
  %5 = load ptr, ptr %3, align 8, !tbaa !64
  %6 = getelementptr inbounds nuw %struct.Vec_Ptr_t_, ptr %5, i32 0, i32 2
  %7 = load ptr, ptr %6, align 8, !tbaa !67
  %8 = load i32, ptr %4, align 4, !tbaa !26
  %9 = sext i32 %8 to i64
  %10 = getelementptr inbounds ptr, ptr %7, i64 %9
  %11 = load ptr, ptr %10, align 8, !tbaa !68
  ret ptr %11
}

; Function Attrs: inlinehint nounwind uwtable
define internal i32 @Vec_PtrSize(ptr noundef %0) #2 {
  %2 = alloca ptr, align 8
  store ptr %0, ptr %2, align 8, !tbaa !64
  %3 = load ptr, ptr %2, align 8, !tbaa !64
  %4 = getelementptr inbounds nuw %struct.Vec_Ptr_t_, ptr %3, i32 0, i32 1
  %5 = load i32, ptr %4, align 4, !tbaa !65
  ret i32 %5
}

; Function Attrs: inlinehint nounwind uwtable
define internal ptr @Aig_ManConst1(ptr noundef %0) #2 {
  %2 = alloca ptr, align 8
  store ptr %0, ptr %2, align 8, !tbaa !8
  %3 = load ptr, ptr %2, align 8, !tbaa !8
  %4 = getelementptr inbounds nuw %struct.Aig_Man_t_, ptr %3, i32 0, i32 6
  %5 = load ptr, ptr %4, align 8, !tbaa !63
  ret ptr %5
}

; Function Attrs: inlinehint nounwind uwtable
define internal ptr @Abc_UtilStrsav(ptr noundef %0) #2 {
  %2 = alloca ptr, align 8
  store ptr %0, ptr %2, align 8, !tbaa !62
  %3 = load ptr, ptr %2, align 8, !tbaa !62
  %4 = icmp ne ptr %3, null
  br i1 %4, label %5, label %13

5:                                                ; preds = %1
  %6 = load ptr, ptr %2, align 8, !tbaa !62
  %7 = call i64 @strlen(ptr noundef %6) #14
  %8 = add i64 %7, 1
  %9 = mul i64 1, %8
  %10 = call noalias ptr @malloc(i64 noundef %9) #15
  %11 = load ptr, ptr %2, align 8, !tbaa !62
  %12 = call ptr @strcpy(ptr noundef %10, ptr noundef %11) #12
  br label %14

13:                                               ; preds = %1
  br label %14

14:                                               ; preds = %13, %5
  %15 = phi ptr [ %12, %5 ], [ null, %13 ]
  ret ptr %15
}

; Function Attrs: inlinehint nounwind uwtable
define internal i32 @Aig_ManObjNum(ptr noundef %0) #2 {
  %2 = alloca ptr, align 8
  store ptr %0, ptr %2, align 8, !tbaa !8
  %3 = load ptr, ptr %2, align 8, !tbaa !8
  %4 = getelementptr inbounds nuw %struct.Aig_Man_t_, ptr %3, i32 0, i32 4
  %5 = load ptr, ptr %4, align 8, !tbaa !60
  %6 = call i32 @Vec_PtrSize(ptr noundef %5)
  %7 = load ptr, ptr %2, align 8, !tbaa !8
  %8 = getelementptr inbounds nuw %struct.Aig_Man_t_, ptr %7, i32 0, i32 15
  %9 = load i32, ptr %8, align 4, !tbaa !61
  %10 = sub nsw i32 %6, %9
  ret i32 %10
}

; Function Attrs: nounwind uwtable
define ptr @Gia_ManFromAigSwitch(ptr noundef %0) #0 {
  %2 = alloca ptr, align 8
  %3 = alloca ptr, align 8
  %4 = alloca ptr, align 8
  %5 = alloca i32, align 4
  store ptr %0, ptr %2, align 8, !tbaa !8
  call void @llvm.lifetime.start.p0(i64 8, ptr %3) #12
  call void @llvm.lifetime.start.p0(i64 8, ptr %4) #12
  call void @llvm.lifetime.start.p0(i64 4, ptr %5) #12
  %6 = load ptr, ptr %2, align 8, !tbaa !8
  %7 = call i32 @Aig_ManObjNum(ptr noundef %6)
  %8 = call ptr @Gia_ManStart(i32 noundef %7)
  store ptr %8, ptr %3, align 8, !tbaa !3
  %9 = load ptr, ptr %2, align 8, !tbaa !8
  %10 = getelementptr inbounds nuw %struct.Aig_Man_t_, ptr %9, i32 0, i32 0
  %11 = load ptr, ptr %10, align 8, !tbaa !48
  %12 = call ptr @Abc_UtilStrsav(ptr noundef %11)
  %13 = load ptr, ptr %3, align 8, !tbaa !3
  %14 = getelementptr inbounds nuw %struct.Gia_Man_t_, ptr %13, i32 0, i32 0
  store ptr %12, ptr %14, align 8, !tbaa !49
  %15 = load ptr, ptr %2, align 8, !tbaa !8
  %16 = getelementptr inbounds nuw %struct.Aig_Man_t_, ptr %15, i32 0, i32 1
  %17 = load ptr, ptr %16, align 8, !tbaa !50
  %18 = call ptr @Abc_UtilStrsav(ptr noundef %17)
  %19 = load ptr, ptr %3, align 8, !tbaa !3
  %20 = getelementptr inbounds nuw %struct.Gia_Man_t_, ptr %19, i32 0, i32 1
  store ptr %18, ptr %20, align 8, !tbaa !51
  %21 = load ptr, ptr %2, align 8, !tbaa !8
  %22 = getelementptr inbounds nuw %struct.Aig_Man_t_, ptr %21, i32 0, i32 12
  %23 = load i32, ptr %22, align 8, !tbaa !52
  %24 = load ptr, ptr %3, align 8, !tbaa !3
  %25 = getelementptr inbounds nuw %struct.Gia_Man_t_, ptr %24, i32 0, i32 23
  store i32 %23, ptr %25, align 4, !tbaa !53
  %26 = load ptr, ptr %2, align 8, !tbaa !8
  call void @Aig_ManCleanData(ptr noundef %26)
  %27 = load ptr, ptr %2, align 8, !tbaa !8
  %28 = call ptr @Aig_ManConst1(ptr noundef %27)
  %29 = getelementptr inbounds nuw %struct.Aig_Obj_t_, ptr %28, i32 0, i32 6
  store i32 1, ptr %29, align 8, !tbaa !12
  store i32 0, ptr %5, align 4, !tbaa !26
  br label %30

30:                                               ; preds = %50, %1
  %31 = load i32, ptr %5, align 4, !tbaa !26
  %32 = load ptr, ptr %2, align 8, !tbaa !8
  %33 = getelementptr inbounds nuw %struct.Aig_Man_t_, ptr %32, i32 0, i32 2
  %34 = load ptr, ptr %33, align 8, !tbaa !54
  %35 = call i32 @Vec_PtrSize(ptr noundef %34)
  %36 = icmp slt i32 %31, %35
  br i1 %36, label %37, label %43

37:                                               ; preds = %30
  %38 = load ptr, ptr %2, align 8, !tbaa !8
  %39 = getelementptr inbounds nuw %struct.Aig_Man_t_, ptr %38, i32 0, i32 2
  %40 = load ptr, ptr %39, align 8, !tbaa !54
  %41 = load i32, ptr %5, align 4, !tbaa !26
  %42 = call ptr @Vec_PtrEntry(ptr noundef %40, i32 noundef %41)
  store ptr %42, ptr %4, align 8, !tbaa !10
  br label %43

43:                                               ; preds = %37, %30
  %44 = phi i1 [ false, %30 ], [ true, %37 ]
  br i1 %44, label %45, label %53

45:                                               ; preds = %43
  %46 = load ptr, ptr %3, align 8, !tbaa !3
  %47 = call i32 @Gia_ManAppendCi(ptr noundef %46)
  %48 = load ptr, ptr %4, align 8, !tbaa !10
  %49 = getelementptr inbounds nuw %struct.Aig_Obj_t_, ptr %48, i32 0, i32 6
  store i32 %47, ptr %49, align 8, !tbaa !12
  br label %50

50:                                               ; preds = %45
  %51 = load i32, ptr %5, align 4, !tbaa !26
  %52 = add nsw i32 %51, 1
  store i32 %52, ptr %5, align 4, !tbaa !26
  br label %30, !llvm.loop !83

53:                                               ; preds = %43
  store i32 0, ptr %5, align 4, !tbaa !26
  br label %54

54:                                               ; preds = %92, %53
  %55 = load i32, ptr %5, align 4, !tbaa !26
  %56 = load ptr, ptr %2, align 8, !tbaa !8
  %57 = getelementptr inbounds nuw %struct.Aig_Man_t_, ptr %56, i32 0, i32 4
  %58 = load ptr, ptr %57, align 8, !tbaa !60
  %59 = call i32 @Vec_PtrSize(ptr noundef %58)
  %60 = icmp slt i32 %55, %59
  br i1 %60, label %61, label %67

61:                                               ; preds = %54
  %62 = load ptr, ptr %2, align 8, !tbaa !8
  %63 = getelementptr inbounds nuw %struct.Aig_Man_t_, ptr %62, i32 0, i32 4
  %64 = load ptr, ptr %63, align 8, !tbaa !60
  %65 = load i32, ptr %5, align 4, !tbaa !26
  %66 = call ptr @Vec_PtrEntry(ptr noundef %64, i32 noundef %65)
  store ptr %66, ptr %4, align 8, !tbaa !10
  br label %67

67:                                               ; preds = %61, %54
  %68 = phi i1 [ false, %54 ], [ true, %61 ]
  br i1 %68, label %69, label %95

69:                                               ; preds = %67
  %70 = load ptr, ptr %4, align 8, !tbaa !10
  %71 = icmp eq ptr %70, null
  br i1 %71, label %76, label %72

72:                                               ; preds = %69
  %73 = load ptr, ptr %4, align 8, !tbaa !10
  %74 = call i32 @Aig_ObjIsNode(ptr noundef %73)
  %75 = icmp ne i32 %74, 0
  br i1 %75, label %77, label %76

76:                                               ; preds = %72, %69
  br label %91

77:                                               ; preds = %72
  %78 = load ptr, ptr %4, align 8, !tbaa !10
  %79 = call i32 @Aig_ObjRefs(ptr noundef %78)
  %80 = icmp eq i32 %79, 0
  br i1 %80, label %81, label %90

81:                                               ; preds = %77
  %82 = load ptr, ptr %3, align 8, !tbaa !3
  %83 = load ptr, ptr %2, align 8, !tbaa !8
  %84 = load ptr, ptr %4, align 8, !tbaa !10
  call void @Gia_ManFromAig_rec(ptr noundef %82, ptr noundef %83, ptr noundef %84)
  %85 = load ptr, ptr %3, align 8, !tbaa !3
  %86 = load ptr, ptr %4, align 8, !tbaa !10
  %87 = getelementptr inbounds nuw %struct.Aig_Obj_t_, ptr %86, i32 0, i32 6
  %88 = load i32, ptr %87, align 8, !tbaa !12
  %89 = call i32 @Gia_ManAppendCo(ptr noundef %85, i32 noundef %88)
  br label %90

90:                                               ; preds = %81, %77
  br label %91

91:                                               ; preds = %90, %76
  br label %92

92:                                               ; preds = %91
  %93 = load i32, ptr %5, align 4, !tbaa !26
  %94 = add nsw i32 %93, 1
  store i32 %94, ptr %5, align 4, !tbaa !26
  br label %54, !llvm.loop !84

95:                                               ; preds = %67
  store i32 0, ptr %5, align 4, !tbaa !26
  br label %96

96:                                               ; preds = %116, %95
  %97 = load i32, ptr %5, align 4, !tbaa !26
  %98 = load ptr, ptr %2, align 8, !tbaa !8
  %99 = getelementptr inbounds nuw %struct.Aig_Man_t_, ptr %98, i32 0, i32 3
  %100 = load ptr, ptr %99, align 8, !tbaa !57
  %101 = call i32 @Vec_PtrSize(ptr noundef %100)
  %102 = icmp slt i32 %97, %101
  br i1 %102, label %103, label %109

103:                                              ; preds = %96
  %104 = load ptr, ptr %2, align 8, !tbaa !8
  %105 = getelementptr inbounds nuw %struct.Aig_Man_t_, ptr %104, i32 0, i32 3
  %106 = load ptr, ptr %105, align 8, !tbaa !57
  %107 = load i32, ptr %5, align 4, !tbaa !26
  %108 = call ptr @Vec_PtrEntry(ptr noundef %106, i32 noundef %107)
  store ptr %108, ptr %4, align 8, !tbaa !10
  br label %109

109:                                              ; preds = %103, %96
  %110 = phi i1 [ false, %96 ], [ true, %103 ]
  br i1 %110, label %111, label %119

111:                                              ; preds = %109
  %112 = load ptr, ptr %3, align 8, !tbaa !3
  %113 = load ptr, ptr %2, align 8, !tbaa !8
  %114 = load ptr, ptr %4, align 8, !tbaa !10
  %115 = call ptr @Aig_ObjFanin0(ptr noundef %114)
  call void @Gia_ManFromAig_rec(ptr noundef %112, ptr noundef %113, ptr noundef %115)
  br label %116

116:                                              ; preds = %111
  %117 = load i32, ptr %5, align 4, !tbaa !26
  %118 = add nsw i32 %117, 1
  store i32 %118, ptr %5, align 4, !tbaa !26
  br label %96, !llvm.loop !85

119:                                              ; preds = %109
  store i32 0, ptr %5, align 4, !tbaa !26
  br label %120

120:                                              ; preds = %142, %119
  %121 = load i32, ptr %5, align 4, !tbaa !26
  %122 = load ptr, ptr %2, align 8, !tbaa !8
  %123 = getelementptr inbounds nuw %struct.Aig_Man_t_, ptr %122, i32 0, i32 3
  %124 = load ptr, ptr %123, align 8, !tbaa !57
  %125 = call i32 @Vec_PtrSize(ptr noundef %124)
  %126 = icmp slt i32 %121, %125
  br i1 %126, label %127, label %133

127:                                              ; preds = %120
  %128 = load ptr, ptr %2, align 8, !tbaa !8
  %129 = getelementptr inbounds nuw %struct.Aig_Man_t_, ptr %128, i32 0, i32 3
  %130 = load ptr, ptr %129, align 8, !tbaa !57
  %131 = load i32, ptr %5, align 4, !tbaa !26
  %132 = call ptr @Vec_PtrEntry(ptr noundef %130, i32 noundef %131)
  store ptr %132, ptr %4, align 8, !tbaa !10
  br label %133

133:                                              ; preds = %127, %120
  %134 = phi i1 [ false, %120 ], [ true, %127 ]
  br i1 %134, label %135, label %145

135:                                              ; preds = %133
  %136 = load ptr, ptr %3, align 8, !tbaa !3
  %137 = load ptr, ptr %4, align 8, !tbaa !10
  %138 = call i32 @Gia_ObjChild0Copy(ptr noundef %137)
  %139 = call i32 @Gia_ManAppendCo(ptr noundef %136, i32 noundef %138)
  %140 = load ptr, ptr %4, align 8, !tbaa !10
  %141 = getelementptr inbounds nuw %struct.Aig_Obj_t_, ptr %140, i32 0, i32 6
  store i32 %139, ptr %141, align 8, !tbaa !12
  br label %142

142:                                              ; preds = %135
  %143 = load i32, ptr %5, align 4, !tbaa !26
  %144 = add nsw i32 %143, 1
  store i32 %144, ptr %5, align 4, !tbaa !26
  br label %120, !llvm.loop !86

145:                                              ; preds = %133
  %146 = load ptr, ptr %3, align 8, !tbaa !3
  %147 = load ptr, ptr %2, align 8, !tbaa !8
  %148 = call i32 @Aig_ManRegNum(ptr noundef %147)
  call void @Gia_ManSetRegNum(ptr noundef %146, i32 noundef %148)
  %149 = load ptr, ptr %3, align 8, !tbaa !3
  call void @llvm.lifetime.end.p0(i64 4, ptr %5) #12
  call void @llvm.lifetime.end.p0(i64 8, ptr %4) #12
  call void @llvm.lifetime.end.p0(i64 8, ptr %3) #12
  ret ptr %149
}