; Function Attrs: nounwind uwtable
define ptr @Gia_ManFromAigSwitch(ptr noundef %0) local_unnamed_addr #0 {
  %2 = getelementptr i8, ptr %0, i64 32
  %.val59 = load ptr, ptr %2, align 8, !tbaa !46
  %3 = getelementptr i8, ptr %0, i64 156
  %.val60 = load i32, ptr %3, align 4, !tbaa !47
  %4 = getelementptr i8, ptr %.val59, i64 4
  %.val59.val = load i32, ptr %4, align 4, !tbaa !48
  %5 = sub nsw i32 %.val59.val, %.val60
  %6 = tail call ptr @Gia_ManStart(i32 noundef %5) #17
  %7 = load ptr, ptr %0, align 8, !tbaa !50
  %.not.i = icmp eq ptr %7, null
  br i1 %.not.i, label %Abc_UtilStrsav.exit, label %8

8:                                                ; preds = %1
  %9 = tail call i64 @strlen(ptr noundef nonnull readonly dereferenceable(1) %7) #18
  %10 = add i64 %9, 1
  %11 = tail call noalias ptr @malloc(i64 noundef %10) #19
  %12 = tail call ptr @strcpy(ptr noundef nonnull dereferenceable(1) %11, ptr noundef nonnull readonly dereferenceable(1) %7) #17
  br label %Abc_UtilStrsav.exit

Abc_UtilStrsav.exit:                              ; preds = %1, %8
  %13 = phi ptr [ %11, %8 ], [ null, %1 ]
  store ptr %13, ptr %6, align 8, !tbaa !51
  %14 = getelementptr inbounds nuw i8, ptr %0, i64 8
  %15 = load ptr, ptr %14, align 8, !tbaa !52
  %.not.i69 = icmp eq ptr %15, null
  br i1 %.not.i69, label %Abc_UtilStrsav.exit70, label %16

16:                                               ; preds = %Abc_UtilStrsav.exit
  %17 = tail call i64 @strlen(ptr noundef nonnull readonly dereferenceable(1) %15) #18
  %18 = add i64 %17, 1
  %19 = tail call noalias ptr @malloc(i64 noundef %18) #19
  %20 = tail call ptr @strcpy(ptr noundef nonnull dereferenceable(1) %19, ptr noundef nonnull readonly dereferenceable(1) %15) #17
  br label %Abc_UtilStrsav.exit70

Abc_UtilStrsav.exit70:                            ; preds = %Abc_UtilStrsav.exit, %16
  %21 = phi ptr [ %19, %16 ], [ null, %Abc_UtilStrsav.exit ]
  %22 = getelementptr inbounds nuw i8, ptr %6, i64 8
  store ptr %21, ptr %22, align 8, !tbaa !53
  %23 = getelementptr inbounds nuw i8, ptr %0, i64 120
  %24 = load i32, ptr %23, align 8, !tbaa !54
  %25 = getelementptr inbounds nuw i8, ptr %6, i64 172
  store i32 %24, ptr %25, align 4, !tbaa !55
  tail call void @Aig_ManCleanData(ptr noundef nonnull %0) #17
  %26 = getelementptr i8, ptr %0, i64 48
  %.val61 = load ptr, ptr %26, align 8, !tbaa !56
  %27 = getelementptr inbounds nuw i8, ptr %.val61, i64 40
  store i32 1, ptr %27, align 8, !tbaa !3
  %28 = getelementptr inbounds nuw i8, ptr %0, i64 16
  %29 = load ptr, ptr %28, align 8, !tbaa !57
  %30 = getelementptr i8, ptr %29, i64 4
  %.val5872 = load i32, ptr %30, align 4, !tbaa !48
  %31 = icmp sgt i32 %.val5872, 0
  br i1 %31, label %.lr.ph, label %.critedge.preheader

.critedge.preheader:                              ; preds = %.lr.ph, %Abc_UtilStrsav.exit70
  %32 = load ptr, ptr %2, align 8, !tbaa !46
  %33 = getelementptr i8, ptr %32, i64 4
  %.val5774 = load i32, ptr %33, align 4, !tbaa !48
  %34 = icmp sgt i32 %.val5774, 0
  br i1 %34, label %.lr.ph76, label %.critedge2.preheader

.lr.ph:                                           ; preds = %Abc_UtilStrsav.exit70, %.lr.ph
  %indvars.iv = phi i64 [ %indvars.iv.next, %.lr.ph ], [ 0, %Abc_UtilStrsav.exit70 ]
  %35 = phi ptr [ %41, %.lr.ph ], [ %29, %Abc_UtilStrsav.exit70 ]
  %36 = getelementptr i8, ptr %35, i64 8
  %.val65 = load ptr, ptr %36, align 8, !tbaa !59
  %37 = getelementptr inbounds nuw ptr, ptr %.val65, i64 %indvars.iv
  %38 = load ptr, ptr %37, align 8, !tbaa !60
  %39 = tail call fastcc i32 @Gia_ManAppendCi(ptr noundef nonnull %6)
  %40 = getelementptr inbounds nuw i8, ptr %38, i64 40
  store i32 %39, ptr %40, align 8, !tbaa !3
  %indvars.iv.next = add nuw nsw i64 %indvars.iv, 1
  %41 = load ptr, ptr %28, align 8, !tbaa !57
  %42 = getelementptr i8, ptr %41, i64 4
  %.val58 = load i32, ptr %42, align 4, !tbaa !48
  %43 = sext i32 %.val58 to i64
  %44 = icmp slt i64 %indvars.iv.next, %43
  br i1 %44, label %.lr.ph, label %.critedge.preheader, !llvm.loop !79

.critedge2.preheader:                             ; preds = %.critedge, %.critedge.preheader
  %45 = getelementptr inbounds nuw i8, ptr %0, i64 24
  %46 = load ptr, ptr %45, align 8, !tbaa !58
  %47 = getelementptr i8, ptr %46, i64 4
  %.val5677 = load i32, ptr %47, align 4, !tbaa !48
  %48 = icmp sgt i32 %.val5677, 0
  br i1 %48, label %.critedge2, label %.critedge6

.lr.ph76:                                         ; preds = %.critedge.preheader, %.critedge
  %49 = phi ptr [ %64, %.critedge ], [ %32, %.critedge.preheader ]
  %indvars.iv86 = phi i64 [ %indvars.iv.next87, %.critedge ], [ 0, %.critedge.preheader ]
  %50 = getelementptr i8, ptr %49, i64 8
  %.val64 = load ptr, ptr %50, align 8, !tbaa !59
  %51 = getelementptr inbounds nuw ptr, ptr %.val64, i64 %indvars.iv86
  %52 = load ptr, ptr %51, align 8, !tbaa !60
  %53 = icmp eq ptr %52, null
  br i1 %53, label %.critedge, label %54

54:                                               ; preds = %.lr.ph76
  %55 = getelementptr i8, ptr %52, i64 24
  %.val67 = load i64, ptr %55, align 8
  %56 = trunc i64 %.val67 to i32
  %57 = and i32 %56, 7
  %58 = add nsw i32 %57, -5
  %narrow.i = icmp ult i32 %58, 2
  %59 = icmp ult i32 %56, 64
  %or.cond = and i1 %59, %narrow.i
  br i1 %or.cond, label %60, label %.critedge

60:                                               ; preds = %54
  tail call void @Gia_ManFromAig_rec(ptr noundef nonnull %6, ptr noundef nonnull %0, ptr noundef nonnull %52)
  %61 = getelementptr inbounds nuw i8, ptr %52, i64 40
  %62 = load i32, ptr %61, align 8, !tbaa !3
  %63 = tail call fastcc i32 @Gia_ManAppendCo(ptr noundef nonnull %6, i32 noundef %62)
  %.pre = load ptr, ptr %2, align 8, !tbaa !46
  br label %.critedge

.critedge:                                        ; preds = %54, %.lr.ph76, %60
  %64 = phi ptr [ %49, %54 ], [ %49, %.lr.ph76 ], [ %.pre, %60 ]
  %indvars.iv.next87 = add nuw nsw i64 %indvars.iv86, 1
  %65 = getelementptr i8, ptr %64, i64 4
  %.val57 = load i32, ptr %65, align 4, !tbaa !48
  %66 = sext i32 %.val57 to i64
  %67 = icmp slt i64 %indvars.iv.next87, %66
  br i1 %67, label %.lr.ph76, label %.critedge2.preheader, !llvm.loop !80

.critedge4.preheader:                             ; preds = %.critedge2
  %68 = icmp sgt i32 %.val56, 0
  br i1 %68, label %.critedge4, label %.critedge6

.critedge2:                                       ; preds = %.critedge2.preheader, %.critedge2
  %indvars.iv89 = phi i64 [ %indvars.iv.next90, %.critedge2 ], [ 0, %.critedge2.preheader ]
  %69 = phi ptr [ %77, %.critedge2 ], [ %46, %.critedge2.preheader ]
  %70 = getelementptr i8, ptr %69, i64 8
  %.val63 = load ptr, ptr %70, align 8, !tbaa !59
  %71 = getelementptr inbounds nuw ptr, ptr %.val63, i64 %indvars.iv89
  %72 = load ptr, ptr %71, align 8, !tbaa !60
  %73 = getelementptr i8, ptr %72, i64 8
  %.val = load ptr, ptr %73, align 8, !tbaa !6
  %74 = ptrtoint ptr %.val to i64
  %75 = and i64 %74, -2
  %76 = inttoptr i64 %75 to ptr
  tail call void @Gia_ManFromAig_rec(ptr noundef nonnull %6, ptr noundef nonnull %0, ptr noundef %76)
  %indvars.iv.next90 = add nuw nsw i64 %indvars.iv89, 1
  %77 = load ptr, ptr %45, align 8, !tbaa !58
  %78 = getelementptr i8, ptr %77, i64 4
  %.val56 = load i32, ptr %78, align 4, !tbaa !48
  %79 = sext i32 %.val56 to i64
  %80 = icmp slt i64 %indvars.iv.next90, %79
  br i1 %80, label %.critedge2, label %.critedge4.preheader, !llvm.loop !81

.critedge4:                                       ; preds = %.critedge4.preheader, %.critedge4
  %indvars.iv92 = phi i64 [ %indvars.iv.next93, %.critedge4 ], [ 0, %.critedge4.preheader ]
  %81 = phi ptr [ %96, %.critedge4 ], [ %77, %.critedge4.preheader ]
  %82 = getelementptr i8, ptr %81, i64 8
  %.val62 = load ptr, ptr %82, align 8, !tbaa !59
  %83 = getelementptr inbounds nuw ptr, ptr %.val62, i64 %indvars.iv92
  %84 = load ptr, ptr %83, align 8, !tbaa !60
  %85 = getelementptr i8, ptr %84, i64 8
  %.val54 = load ptr, ptr %85, align 8, !tbaa !6
  %86 = ptrtoint ptr %.val54 to i64
  %87 = and i64 %86, -2
  %88 = inttoptr i64 %87 to ptr
  %89 = getelementptr inbounds nuw i8, ptr %88, i64 40
  %90 = load i32, ptr %89, align 8, !tbaa !3
  %91 = trunc i64 %86 to i32
  %92 = and i32 %91, 1
  %93 = xor i32 %92, %90
  %94 = tail call fastcc i32 @Gia_ManAppendCo(ptr noundef nonnull %6, i32 noundef %93)
  %95 = getelementptr inbounds nuw i8, ptr %84, i64 40
  store i32 %94, ptr %95, align 8, !tbaa !3
  %indvars.iv.next93 = add nuw nsw i64 %indvars.iv92, 1
  %96 = load ptr, ptr %45, align 8, !tbaa !58
  %97 = getelementptr i8, ptr %96, i64 4
  %.val55 = load i32, ptr %97, align 4, !tbaa !48
  %98 = sext i32 %.val55 to i64
  %99 = icmp slt i64 %indvars.iv.next93, %98
  br i1 %99, label %.critedge4, label %.critedge6, !llvm.loop !82

.critedge6:                                       ; preds = %.critedge4, %.critedge2.preheader, %.critedge4.preheader
  %100 = getelementptr i8, ptr %0, i64 104
  %.val66 = load i32, ptr %100, align 8, !tbaa !65
  tail call void @Gia_ManSetRegNum(ptr noundef nonnull %6, i32 noundef %.val66) #17
  ret ptr %6
}